target datalayout = "e-m:e-p270:32:32-p271:32:32-p272:64:64-i64:64-i128:128-f80:128-n8:16:32:64-S128"
target triple = "x86_64-pc-linux-gnu"

%struct.siphash_data_st = type { ptr, %struct.siphash_st, %struct.siphash_st, i32, i32 }
%struct.siphash_st = type { i64, i64, i64, i64, i64, i32, i32, i32, i32, [8 x i8] }
%struct.ossl_param_st = type { ptr, i32, ptr, i64, i64 }

@.str.1 = private unnamed_addr constant [5 x i8] c"size\00", align 1
@.str.2 = private unnamed_addr constant [9 x i8] c"c-rounds\00", align 1
@.str.3 = private unnamed_addr constant [9 x i8] c"d-rounds\00", align 1
@.str.4 = private unnamed_addr constant [4 x i8] c"key\00", align 1

; Function Attrs: nounwind uwtable
define internal i32 @drounds(ptr noundef %0) #0 {
  %2 = alloca ptr, align 8
  store ptr %0, ptr %2, align 8, !tbaa !7
  %3 = load ptr, ptr %2, align 8, !tbaa !7
  %4 = getelementptr inbounds nuw %struct.siphash_data_st, ptr %3, i32 0, i32 4
  %5 = load i32, ptr %4, align 4, !tbaa !30
  %6 = icmp ne i32 %5, 0
  br i1 %6, label %7, label %11

7:                                                ; preds = %1
  %8 = load ptr, ptr %2, align 8, !tbaa !7
  %9 = getelementptr inbounds nuw %struct.siphash_data_st, ptr %8, i32 0, i32 4
  %10 = load i32, ptr %9, align 4, !tbaa !30
  br label %12

11:                                               ; preds = %1
  br label %12

12:                                               ; preds = %11, %7
  %13 = phi i32 [ %10, %7 ], [ 4, %11 ]
  ret i32 %13
}

; Function Attrs: nounwind uwtable
define internal i32 @crounds(ptr noundef %0) #0 {
  %2 = alloca ptr, align 8
  store ptr %0, ptr %2, align 8, !tbaa !7
  %3 = load ptr, ptr %2, align 8, !tbaa !7
  %4 = getelementptr inbounds nuw %struct.siphash_data_st, ptr %3, i32 0, i32 3
  %5 = load i32, ptr %4, align 8, !tbaa !29
  %6 = icmp ne i32 %5, 0
  br i1 %6, label %7, label %11

7:                                                ; preds = %1
  %8 = load ptr, ptr %2, align 8, !tbaa !7
  %9 = getelementptr inbounds nuw %struct.siphash_data_st, ptr %8, i32 0, i32 3
  %10 = load i32, ptr %9, align 8, !tbaa !29
  br label %12

11:                                               ; preds = %1
  br label %12

12:                                               ; preds = %11, %7
  %13 = phi i32 [ %10, %7 ], [ 2, %11 ]
  ret i32 %13
}

; Function Attrs: nounwind uwtable
define internal i32 @siphash_setkey(ptr noundef %0, ptr noundef %1, i64 noundef %2) #0 {
  %4 = alloca i32, align 4
  %5 = alloca ptr, align 8
  %6 = alloca ptr, align 8
  %7 = alloca i64, align 8
  %8 = alloca i32, align 4
  %9 = alloca i32, align 4
  store ptr %0, ptr %5, align 8, !tbaa !7
  store ptr %1, ptr %6, align 8, !tbaa !18
  store i64 %2, ptr %7, align 8, !tbaa !15
  call void @llvm.lifetime.start.p0(i64 4, ptr %8) #5
  %10 = load i64, ptr %7, align 8, !tbaa !15
  %11 = icmp ne i64 %10, 16
  br i1 %11, label %12, label %13

12:                                               ; preds = %3
  store i32 0, ptr %4, align 4
  store i32 1, ptr %9, align 4
  br label %31

13:                                               ; preds = %3
  %14 = load ptr, ptr %5, align 8, !tbaa !7
  %15 = getelementptr inbounds nuw %struct.siphash_data_st, ptr %14, i32 0, i32 1
  %16 = load ptr, ptr %6, align 8, !tbaa !18
  %17 = load ptr, ptr %5, align 8, !tbaa !7
  %18 = call i32 @crounds(ptr noundef %17)
  %19 = load ptr, ptr %5, align 8, !tbaa !7
  %20 = call i32 @drounds(ptr noundef %19)
  %21 = call i32 @SipHash_Init(ptr noundef %15, ptr noundef %16, i32 noundef %18, i32 noundef %20)
  store i32 %21, ptr %8, align 4, !tbaa !16
  %22 = load i32, ptr %8, align 4, !tbaa !16
  %23 = icmp ne i32 %22, 0
  br i1 %23, label %24, label %29

24:                                               ; preds = %13
  %25 = load ptr, ptr %5, align 8, !tbaa !7
  %26 = getelementptr inbounds nuw %struct.siphash_data_st, ptr %25, i32 0, i32 2
  %27 = load ptr, ptr %5, align 8, !tbaa !7
  %28 = getelementptr inbounds nuw %struct.siphash_data_st, ptr %27, i32 0, i32 1
  call void @llvm.memcpy.p0.p0.i64(ptr align 8 %26, ptr align 8 %28, i64 64, i1 false), !tbaa.struct !22
  br label %29

29:                                               ; preds = %24, %13
  %30 = load i32, ptr %8, align 4, !tbaa !16
  store i32 %30, ptr %4, align 4
  store i32 1, ptr %9, align 4
  br label %31

31:                                               ; preds = %29, %12
  call void @llvm.lifetime.end.p0(i64 4, ptr %8) #5
  %32 = load i32, ptr %4, align 4
  ret i32 %32
}

; Function Attrs: inlinehint nounwind uwtable
define internal i32 @ossl_param_is_empty(ptr noundef %0) #4 {
  %2 = alloca ptr, align 8
  store ptr %0, ptr %2, align 8, !tbaa !20
  %3 = load ptr, ptr %2, align 8, !tbaa !20
  %4 = icmp eq ptr %3, null
  br i1 %4, label %10, label %5

5:                                                ; preds = %1
  %6 = load ptr, ptr %2, align 8, !tbaa !20
  %7 = getelementptr inbounds nuw %struct.ossl_param_st, ptr %6, i32 0, i32 0
  %8 = load ptr, ptr %7, align 8, !tbaa !31
  %9 = icmp eq ptr %8, null
  br label %10

10:                                               ; preds = %5, %1
  %11 = phi i1 [ true, %1 ], [ %9, %5 ]
  %12 = zext i1 %11 to i32
  ret i32 %12
}

; Function Attrs: nounwind uwtable
define internal i32 @siphash_set_params(ptr noundef %0, ptr noundef %1) #0 {
  %3 = alloca i32, align 4
  %4 = alloca ptr, align 8
  %5 = alloca ptr, align 8
  %6 = alloca ptr, align 8
  %7 = alloca ptr, align 8
  %8 = alloca i64, align 8
  %9 = alloca i32, align 4
  store ptr %0, ptr %4, align 8, !tbaa !3
  store ptr %1, ptr %5, align 8, !tbaa !20
  call void @llvm.lifetime.start.p0(i64 8, ptr %6) #5
  %10 = load ptr, ptr %4, align 8, !tbaa !3
  store ptr %10, ptr %6, align 8, !tbaa !7
  call void @llvm.lifetime.start.p0(i64 8, ptr %7) #5
  store ptr null, ptr %7, align 8, !tbaa !20
  call void @llvm.lifetime.start.p0(i64 8, ptr %8) #5
  %11 = load ptr, ptr %5, align 8, !tbaa !20
  %12 = call i32 @ossl_param_is_empty(ptr noundef %11)
  %13 = icmp ne i32 %12, 0
  br i1 %13, label %14, label %15

14:                                               ; preds = %2
  store i32 1, ptr %3, align 4
  store i32 1, ptr %9, align 4
  br label %81

15:                                               ; preds = %2
  %16 = load ptr, ptr %5, align 8, !tbaa !20
  %17 = call ptr @OSSL_PARAM_locate_const(ptr noundef %16, ptr noundef @.str.1)
  store ptr %17, ptr %7, align 8, !tbaa !20
  %18 = icmp ne ptr %17, null
  br i1 %18, label %19, label %37

19:                                               ; preds = %15
  %20 = load ptr, ptr %7, align 8, !tbaa !20
  %21 = call i32 @OSSL_PARAM_get_size_t(ptr noundef %20, ptr noundef %8)
  %22 = icmp ne i32 %21, 0
  br i1 %22, label %23, label %35

23:                                               ; preds = %19
  %24 = load ptr, ptr %6, align 8, !tbaa !7
  %25 = getelementptr inbounds nuw %struct.siphash_data_st, ptr %24, i32 0, i32 1
  %26 = load i64, ptr %8, align 8, !tbaa !15
  %27 = call i32 @SipHash_set_hash_size(ptr noundef %25, i64 noundef %26)
  %28 = icmp ne i32 %27, 0
  br i1 %28, label %29, label %35

29:                                               ; preds = %23
  %30 = load ptr, ptr %6, align 8, !tbaa !7
  %31 = getelementptr inbounds nuw %struct.siphash_data_st, ptr %30, i32 0, i32 2
  %32 = load i64, ptr %8, align 8, !tbaa !15
  %33 = call i32 @SipHash_set_hash_size(ptr noundef %31, i64 noundef %32)
  %34 = icmp ne i32 %33, 0
  br i1 %34, label %36, label %35

35:                                               ; preds = %29, %23, %19
  store i32 0, ptr %3, align 4
  store i32 1, ptr %9, align 4
  br label %81

36:                                               ; preds = %29
  br label %37

37:                                               ; preds = %36, %15
  %38 = load ptr, ptr %5, align 8, !tbaa !20
  %39 = call ptr @OSSL_PARAM_locate_const(ptr noundef %38, ptr noundef @.str.2)
  store ptr %39, ptr %7, align 8, !tbaa !20
  %40 = icmp ne ptr %39, null
  br i1 %40, label %41, label %48

41:                                               ; preds = %37
  %42 = load ptr, ptr %7, align 8, !tbaa !20
  %43 = load ptr, ptr %6, align 8, !tbaa !7
  %44 = getelementptr inbounds nuw %struct.siphash_data_st, ptr %43, i32 0, i32 3
  %45 = call i32 @OSSL_PARAM_get_uint(ptr noundef %42, ptr noundef %44)
  %46 = icmp ne i32 %45, 0
  br i1 %46, label %48, label %47

47:                                               ; preds = %41
  store i32 0, ptr %3, align 4
  store i32 1, ptr %9, align 4
  br label %81

48:                                               ; preds = %41, %37
  %49 = load ptr, ptr %5, align 8, !tbaa !20
  %50 = call ptr @OSSL_PARAM_locate_const(ptr noundef %49, ptr noundef @.str.3)
  store ptr %50, ptr %7, align 8, !tbaa !20
  %51 = icmp ne ptr %50, null
  br i1 %51, label %52, label %59

52:                                               ; preds = %48
  %53 = load ptr, ptr %7, align 8, !tbaa !20
  %54 = load ptr, ptr %6, align 8, !tbaa !7
  %55 = getelementptr inbounds nuw %struct.siphash_data_st, ptr %54, i32 0, i32 4
  %56 = call i32 @OSSL_PARAM_get_uint(ptr noundef %53, ptr noundef %55)
  %57 = icmp ne i32 %56, 0
  br i1 %57, label %59, label %58

58:                                               ; preds = %52
  store i32 0, ptr %3, align 4
  store i32 1, ptr %9, align 4
  br label %81

59:                                               ; preds = %52, %48
  %60 = load ptr, ptr %5, align 8, !tbaa !20
  %61 = call ptr @OSSL_PARAM_locate_const(ptr noundef %60, ptr noundef @.str.4)
  store ptr %61, ptr %7, align 8, !tbaa !20
  %62 = icmp ne ptr %61, null
  br i1 %62, label %63, label %80

63:                                               ; preds = %59
  %64 = load ptr, ptr %7, align 8, !tbaa !20
  %65 = getelementptr inbounds nuw %struct.ossl_param_st, ptr %64, i32 0, i32 1
  %66 = load i32, ptr %65, align 8, !tbaa !25
  %67 = icmp ne i32 %66, 5
  br i1 %67, label %78, label %68

68:                                               ; preds = %63
  %69 = load ptr, ptr %6, align 8, !tbaa !7
  %70 = load ptr, ptr %7, align 8, !tbaa !20
  %71 = getelementptr inbounds nuw %struct.ossl_param_st, ptr %70, i32 0, i32 2
  %72 = load ptr, ptr %71, align 8, !tbaa !27
  %73 = load ptr, ptr %7, align 8, !tbaa !20
  %74 = getelementptr inbounds nuw %struct.ossl_param_st, ptr %73, i32 0, i32 3
  %75 = load i64, ptr %74, align 8, !tbaa !28
  %76 = call i32 @siphash_setkey(ptr noundef %69, ptr noundef %72, i64 noundef %75)
  %77 = icmp ne i32 %76, 0
  br i1 %77, label %79, label %78

78:                                               ; preds = %68, %63
  store i32 0, ptr %3, align 4
  store i32 1, ptr %9, align 4
  br label %81

79:                                               ; preds = %68
  br label %80

80:                                               ; preds = %79, %59
  store i32 1, ptr %3, align 4
  store i32 1, ptr %9, align 4
  br label %81

81:                                               ; preds = %80, %78, %58, %47, %35, %14
  call void @llvm.lifetime.end.p0(i64 8, ptr %8) #5
  call void @llvm.lifetime.end.p0(i64 8, ptr %7) #5
  call void @llvm.lifetime.end.p0(i64 8, ptr %6) #5
  %82 = load i32, ptr %3, align 4
  ret i32 %82
}