; Function Attrs: nounwind uwtable
define internal range(i32 0, 2) i32 @siphash_set_params(ptr noundef %0, ptr noundef %1) #0 {
  %3 = alloca i64, align 8
  call void @llvm.lifetime.start.p0(i64 8, ptr nonnull %3) #5
  %4 = icmp eq ptr %1, null
  br i1 %4, label %ossl_param_is_empty.exit.thread, label %ossl_param_is_empty.exit

ossl_param_is_empty.exit:                         ; preds = %2
  %5 = load ptr, ptr %1, align 8, !tbaa !19
  %.not = icmp eq ptr %5, null
  br i1 %.not, label %ossl_param_is_empty.exit.thread, label %6

6:                                                ; preds = %ossl_param_is_empty.exit
  %7 = tail call ptr @OSSL_PARAM_locate_const(ptr noundef nonnull %1, ptr noundef nonnull @.str.1) #5
  %.not21 = icmp eq ptr %7, null
  br i1 %.not21, label %18, label %8

8:                                                ; preds = %6
  %9 = call i32 @OSSL_PARAM_get_size_t(ptr noundef nonnull %7, ptr noundef nonnull %3) #5
  %.not22 = icmp eq i32 %9, 0
  br i1 %.not22, label %ossl_param_is_empty.exit.thread, label %10

10:                                               ; preds = %8
  %11 = getelementptr inbounds nuw i8, ptr %0, i64 8
  %12 = load i64, ptr %3, align 8, !tbaa !13
  %13 = call i32 @SipHash_set_hash_size(ptr noundef nonnull %11, i64 noundef %12) #5
  %.not23 = icmp eq i32 %13, 0
  br i1 %.not23, label %ossl_param_is_empty.exit.thread, label %14

14:                                               ; preds = %10
  %15 = getelementptr inbounds nuw i8, ptr %0, i64 72
  %16 = load i64, ptr %3, align 8, !tbaa !13
  %17 = call i32 @SipHash_set_hash_size(ptr noundef nonnull %15, i64 noundef %16) #5
  %.not24 = icmp eq i32 %17, 0
  br i1 %.not24, label %ossl_param_is_empty.exit.thread, label %18

18:                                               ; preds = %14, %6
  %19 = call ptr @OSSL_PARAM_locate_const(ptr noundef nonnull %1, ptr noundef nonnull @.str.2) #5
  %.not25 = icmp eq ptr %19, null
  br i1 %.not25, label %23, label %20

20:                                               ; preds = %18
  %21 = getelementptr inbounds nuw i8, ptr %0, i64 136
  %22 = call i32 @OSSL_PARAM_get_uint(ptr noundef nonnull %19, ptr noundef nonnull %21) #5
  %.not26 = icmp eq i32 %22, 0
  br i1 %.not26, label %ossl_param_is_empty.exit.thread, label %23

23:                                               ; preds = %20, %18
  %24 = call ptr @OSSL_PARAM_locate_const(ptr noundef nonnull %1, ptr noundef nonnull @.str.3) #5
  %.not27 = icmp eq ptr %24, null
  br i1 %.not27, label %28, label %25

25:                                               ; preds = %23
  %26 = getelementptr inbounds nuw i8, ptr %0, i64 140
  %27 = call i32 @OSSL_PARAM_get_uint(ptr noundef nonnull %24, ptr noundef nonnull %26) #5
  %.not28 = icmp eq i32 %27, 0
  br i1 %.not28, label %ossl_param_is_empty.exit.thread, label %28

28:                                               ; preds = %25, %23
  %29 = call ptr @OSSL_PARAM_locate_const(ptr noundef nonnull %1, ptr noundef nonnull @.str.4) #5
  %.not29 = icmp eq ptr %29, null
  br i1 %.not29, label %ossl_param_is_empty.exit.thread, label %30

30:                                               ; preds = %28
  %31 = getelementptr inbounds nuw i8, ptr %29, i64 8
  %32 = load i32, ptr %31, align 8, !tbaa !22
  %.not30 = icmp eq i32 %32, 5
  br i1 %.not30, label %33, label %ossl_param_is_empty.exit.thread

33:                                               ; preds = %30
  %34 = getelementptr inbounds nuw i8, ptr %29, i64 24
  %35 = load i64, ptr %34, align 8, !tbaa !23
  %.not.i = icmp eq i64 %35, 16
  br i1 %.not.i, label %36, label %ossl_param_is_empty.exit.thread

36:                                               ; preds = %33
  %37 = getelementptr inbounds nuw i8, ptr %29, i64 16
  %38 = load ptr, ptr %37, align 8, !tbaa !24
  %39 = getelementptr inbounds nuw i8, ptr %0, i64 8
  %40 = getelementptr i8, ptr %0, i64 136
  %.val.i = load i32, ptr %40, align 8, !tbaa !17
  %.not.i.i = icmp eq i32 %.val.i, 0
  %spec.select.i.i = select i1 %.not.i.i, i32 2, i32 %.val.i
  %41 = getelementptr i8, ptr %0, i64 140
  %.val10.i = load i32, ptr %41, align 4, !tbaa !18
  %.not.i11.i = icmp eq i32 %.val10.i, 0
  %spec.select.i12.i = select i1 %.not.i11.i, i32 4, i32 %.val10.i
  %42 = call i32 @SipHash_Init(ptr noundef nonnull %39, ptr noundef %38, i32 noundef %spec.select.i.i, i32 noundef %spec.select.i12.i) #5
  %.not9.i = icmp eq i32 %42, 0
  br i1 %.not9.i, label %ossl_param_is_empty.exit.thread, label %siphash_setkey.exit

siphash_setkey.exit:                              ; preds = %36
  %43 = getelementptr inbounds nuw i8, ptr %0, i64 72
  call void @llvm.memcpy.p0.p0.i64(ptr noundef nonnull align 8 dereferenceable(64) %43, ptr noundef nonnull align 8 dereferenceable(64) %39, i64 64, i1 false), !tbaa.struct !16
  br label %ossl_param_is_empty.exit.thread

ossl_param_is_empty.exit.thread:                  ; preds = %36, %33, %2, %28, %siphash_setkey.exit, %30, %25, %20, %8, %10, %14, %ossl_param_is_empty.exit
  %.0 = phi i32 [ 1, %ossl_param_is_empty.exit ], [ 0, %14 ], [ 0, %10 ], [ 0, %8 ], [ 0, %20 ], [ 0, %25 ], [ 0, %30 ], [ 1, %siphash_setkey.exit ], [ 1, %28 ], [ 1, %2 ], [ 0, %33 ], [ 0, %36 ]
  call void @llvm.lifetime.end.p0(i64 8, ptr nonnull %3) #5
  ret i32 %.0
}